; ModuleID = '20/9.c'
source_filename = "20/9.c"
target datalayout = "e-m:e-p270:32:32-p271:32:32-p272:64:64-i64:64-f80:128-n8:16:32:64-S128"
target triple = "x86_64-pc-linux-gnu"

@.str = private unnamed_addr constant [5 x i8] c"%s%s\00", align 1
@.str.1 = private unnamed_addr constant [3 x i8] c"%c\00", align 1
@.str.2 = private unnamed_addr constant [3 x i8] c"%s\00", align 1
@.str.3 = private unnamed_addr constant [2 x i8] c"\0A\00", align 1

; Function Attrs: noinline nounwind uwtable
define dso_local void @main() #0 {
  %1 = alloca [11 x i8], align 1
  %2 = alloca [4 x i8], align 1
  %3 = alloca i8*, align 8
  %4 = alloca i8, align 1
  %5 = alloca i32, align 4
  %6 = alloca i32, align 4
  br label %7

7:                                                ; preds = %74, %0
  %8 = getelementptr inbounds [11 x i8], [11 x i8]* %1, i64 0, i64 0
  %9 = getelementptr inbounds [4 x i8], [4 x i8]* %2, i64 0, i64 0
  %10 = call i32 (i8*, ...) @__isoc99_scanf(i8* getelementptr inbounds ([5 x i8], [5 x i8]* @.str, i64 0, i64 0), i8* %8, i8* %9)
  %11 = icmp ne i32 %10, -1
  br i1 %11, label %12, label %76

12:                                               ; preds = %7
  %13 = getelementptr inbounds [11 x i8], [11 x i8]* %1, i64 0, i64 0
  store i8* %13, i8** %3, align 8
  %14 = load i8*, i8** %3, align 8
  %15 = load i8, i8* %14, align 1
  store i8 %15, i8* %4, align 1
  store i32 0, i32* %6, align 4
  store i32 0, i32* %5, align 4
  br label %16

16:                                               ; preds = %34, %12
  %17 = load i32, i32* %5, align 4
  %18 = sext i32 %17 to i64
  %19 = getelementptr inbounds [11 x i8], [11 x i8]* %1, i64 0, i64 0
  %20 = call i64 @strlen(i8* %19) #3
  %21 = icmp ult i64 %18, %20
  br i1 %21, label %22, label %39

22:                                               ; preds = %16
  %23 = load i8*, i8** %3, align 8
  %24 = load i8, i8* %23, align 1
  %25 = sext i8 %24 to i32
  %26 = load i8, i8* %4, align 1
  %27 = sext i8 %26 to i32
  %28 = icmp sgt i32 %25, %27
  br i1 %28, label %29, label %33

29:                                               ; preds = %22
  %30 = load i8*, i8** %3, align 8
  %31 = load i8, i8* %30, align 1
  store i8 %31, i8* %4, align 1
  %32 = load i32, i32* %5, align 4
  store i32 %32, i32* %6, align 4
  br label %33

33:                                               ; preds = %29, %22
  br label %34

34:                                               ; preds = %33
  %35 = load i32, i32* %5, align 4
  %36 = add nsw i32 %35, 1
  store i32 %36, i32* %5, align 4
  %37 = load i8*, i8** %3, align 8
  %38 = getelementptr inbounds i8, i8* %37, i32 1
  store i8* %38, i8** %3, align 8
  br label %16

39:                                               ; preds = %16
  %40 = getelementptr inbounds [11 x i8], [11 x i8]* %1, i64 0, i64 0
  store i8* %40, i8** %3, align 8
  store i32 0, i32* %5, align 4
  br label %41

41:                                               ; preds = %50, %39
  %42 = load i32, i32* %5, align 4
  %43 = load i32, i32* %6, align 4
  %44 = icmp sle i32 %42, %43
  br i1 %44, label %45, label %55

45:                                               ; preds = %41
  %46 = load i8*, i8** %3, align 8
  %47 = load i8, i8* %46, align 1
  %48 = sext i8 %47 to i32
  %49 = call i32 (i8*, ...) @printf(i8* getelementptr inbounds ([3 x i8], [3 x i8]* @.str.1, i64 0, i64 0), i32 %48)
  br label %50

50:                                               ; preds = %45
  %51 = load i32, i32* %5, align 4
  %52 = add nsw i32 %51, 1
  store i32 %52, i32* %5, align 4
  %53 = load i8*, i8** %3, align 8
  %54 = getelementptr inbounds i8, i8* %53, i32 1
  store i8* %54, i8** %3, align 8
  br label %41

55:                                               ; preds = %41
  %56 = getelementptr inbounds [4 x i8], [4 x i8]* %2, i64 0, i64 0
  %57 = call i32 (i8*, ...) @printf(i8* getelementptr inbounds ([3 x i8], [3 x i8]* @.str.2, i64 0, i64 0), i8* %56)
  br label %58

58:                                               ; preds = %69, %55
  %59 = load i32, i32* %5, align 4
  %60 = sext i32 %59 to i64
  %61 = getelementptr inbounds [11 x i8], [11 x i8]* %1, i64 0, i64 0
  %62 = call i64 @strlen(i8* %61) #3
  %63 = icmp ult i64 %60, %62
  br i1 %63, label %64, label %74

64:                                               ; preds = %58
  %65 = load i8*, i8** %3, align 8
  %66 = load i8, i8* %65, align 1
  %67 = sext i8 %66 to i32
  %68 = call i32 (i8*, ...) @printf(i8* getelementptr inbounds ([3 x i8], [3 x i8]* @.str.1, i64 0, i64 0), i32 %67)
  br label %69

69:                                               ; preds = %64
  %70 = load i32, i32* %5, align 4
  %71 = add nsw i32 %70, 1
  store i32 %71, i32* %5, align 4
  %72 = load i8*, i8** %3, align 8
  %73 = getelementptr inbounds i8, i8* %72, i32 1
  store i8* %73, i8** %3, align 8
  br label %58

74:                                               ; preds = %58
  %75 = call i32 (i8*, ...) @printf(i8* getelementptr inbounds ([2 x i8], [2 x i8]* @.str.3, i64 0, i64 0))
  br label %7

76:                                               ; preds = %7
  ret void
}

declare dso_local i32 @__isoc99_scanf(i8*, ...) #1

; Function Attrs: nounwind readonly
declare dso_local i64 @strlen(i8*) #2

declare dso_local i32 @printf(i8*, ...) #1


!llvm.module.flags = !{!0}
!llvm.ident = !{!1}

!0 = !{i32 1, !"wchar_size", i32 4}
!1 = !{!"clang version 10.0.0-4ubuntu1 "}
